; Function Attrs: mustprogress nofree norecurse nosync nounwind sspstrong willreturn memory(argmem: read) uwtable
define internal zeroext i1 @pm_encoding_ascii_isupper_char_7bit(ptr noundef readonly captures(none) %0, i64 %1) #2 {
  %3 = load i8, ptr %0, align 1, !tbaa !7
  %4 = icmp sgt i8 %3, -1
  br i1 %4, label %5, label %11

5:                                                ; preds = %2
  %6 = zext nneg i8 %3 to i64
  %7 = getelementptr [256 x i8], ptr @pm_encoding_windows_874_table, i64 0, i64 %6
  %8 = load i8, ptr %7, align 1, !tbaa !7
  %9 = and i8 %8, 4
  %10 = icmp ne i8 %9, 0
  br label %11

11:                                               ; preds = %5, %2
  %12 = phi i1 [ false, %2 ], [ %10, %5 ]
  ret i1 %12
}